; Function Attrs: null_pointer_is_valid sspstrong uwtable
define internal noundef i32 @exp_pdu_data_port_type_populate_data(ptr noundef readonly captures(none) %0, ptr readnone captures(none) %1, ptr noundef writeonly captures(none) initializes((0, 4)) %2, i32 %3) #5 {
  store i8 0, ptr %2, align 1
  %5 = getelementptr i8, ptr %2, i64 1
  store i8 24, ptr %5, align 1
  %6 = getelementptr i8, ptr %2, i64 2
  store i8 0, ptr %6, align 1
  %7 = getelementptr i8, ptr %2, i64 3
  store i8 4, ptr %7, align 1
  %8 = getelementptr inbounds nuw i8, ptr %0, i64 280
  %9 = load i32, ptr %8, align 8
  %10 = icmp ult i32 %9, 14
  br i1 %10, label %switch.lookup, label %11

11:                                               ; preds = %4
  tail call void (ptr, ...) @proto_report_dissector_bug(ptr noundef nonnull @.str, ptr noundef nonnull @.str.1, i32 noundef 120, ptr noundef nonnull @.str.4) #15
  unreachable

switch.lookup:                                    ; preds = %4
  %12 = zext nneg i32 %9 to i64
  %switch.gep = getelementptr inbounds nuw [14 x i8], ptr @switch.table.exp_pdu_data_port_type_populate_data, i64 0, i64 %12
  %switch.load = load i8, ptr %switch.gep, align 1
  %13 = getelementptr i8, ptr %2, i64 4
  store i8 0, ptr %13, align 1
  %14 = getelementptr i8, ptr %2, i64 5
  store i8 0, ptr %14, align 1
  %15 = getelementptr i8, ptr %2, i64 6
  store i8 0, ptr %15, align 1
  %16 = getelementptr i8, ptr %2, i64 7
  store i8 %switch.load, ptr %16, align 1
  ret i32 8
}